; Function Attrs: mustprogress uwtable
define hidden void @_ZN8sat2goalclERN3sat6solverERK13atom2bool_varRK10params_refR4goalR3refINS_2mcEE(ptr nocapture noundef nonnull writeonly align 8 dereferenceable(8) %this, ptr noundef nonnull align 8 dereferenceable(4408) %t, ptr noundef nonnull align 8 dereferenceable(41) %m, ptr noundef nonnull align 8 dereferenceable(8) %p, ptr noundef nonnull align 8 dereferenceable(124) %g, ptr noundef nonnull align 8 dereferenceable(8) %mc) local_unnamed_addr #3 align 2 personality ptr @__gxx_personality_v0 {
entry:
  %proc = alloca %"struct.sat2goal::imp", align 8
  %0 = load ptr, ptr %g, align 8
  store ptr %0, ptr %proc, align 8
  %m_lit2expr.i = getelementptr inbounds i8, ptr %proc, i64 8
  %1 = ptrtoint ptr %0 to i64
  store i64 %1, ptr %m_lit2expr.i, align 8
  %m_nodes.i.i.i = getelementptr inbounds i8, ptr %proc, i64 16
  store ptr null, ptr %m_nodes.i.i.i, align 8
  %call.i1.i = invoke noundef zeroext i1 @_ZNK10params_ref8get_boolEPKcb(ptr noundef nonnull align 8 dereferenceable(8) %p, ptr noundef nonnull @.str.4, i1 noundef zeroext false)
          to label %call.i.noexc.i unwind label %lpad.i

call.i.noexc.i:                                   ; preds = %entry
  %m_learned.i.i = getelementptr inbounds i8, ptr %proc, i64 32
  %frombool.i.i = zext i1 %call.i1.i to i8
  store i8 %frombool.i.i, ptr %m_learned.i.i, align 8
  %call2.i2.i = invoke noundef i32 @_ZNK10params_ref8get_uintEPKcj(ptr noundef nonnull align 8 dereferenceable(8) %p, ptr noundef nonnull @.str.8, i32 noundef -1)
          to label %_ZN8sat2goal3impC2ER11ast_managerRK10params_ref.exit unwind label %lpad.i

common.resume:                                    ; preds = %lpad2, %lpad.i
  %common.resume.op = phi { ptr, i32 } [ %2, %lpad.i ], [ %14, %lpad2 ]
  resume { ptr, i32 } %common.resume.op

lpad.i:                                           ; preds = %call.i.noexc.i, %entry
  %2 = landingpad { ptr, i32 }
          cleanup
  call void @_ZN10ref_vectorI4expr11ast_managerED2Ev(ptr noundef nonnull align 8 dereferenceable(16) %m_lit2expr.i) #17
  br label %common.resume

_ZN8sat2goal3impC2ER11ast_managerRK10params_ref.exit: ; preds = %call.i.noexc.i
  %cmp.i.i.i = icmp eq i32 %call2.i2.i, -1
  %conv.i.i.i = zext i32 %call2.i2.i to i64
  %mul1.i.i.i = shl nuw nsw i64 %conv.i.i.i, 20
  %retval.0.i.i.i = select i1 %cmp.i.i.i, i64 -1, i64 %mul1.i.i.i
  %m_max_memory.i.i = getelementptr inbounds i8, ptr %proc, i64 24
  store i64 %retval.0.i.i.i, ptr %m_max_memory.i.i, align 8
  store ptr %proc, ptr %this, align 8
  invoke void @_ZN8sat2goal3impclERN3sat6solverERK13atom2bool_varR4goalR3refINS_2mcEE(ptr noundef nonnull align 8 dereferenceable(33) %proc, ptr noundef nonnull align 8 dereferenceable(4408) %t, ptr noundef nonnull align 8 dereferenceable(41) %m, ptr noundef nonnull align 8 dereferenceable(124) %g, ptr noundef nonnull align 8 dereferenceable(8) %mc)
          to label %invoke.cont3 unwind label %lpad2

invoke.cont3:                                     ; preds = %_ZN8sat2goal3impC2ER11ast_managerRK10params_ref.exit
  store ptr null, ptr %this, align 8
  %3 = load ptr, ptr %m_nodes.i.i.i, align 8
  %cmp.i.i.i.i = icmp eq ptr %3, null
  br i1 %cmp.i.i.i.i, label %_ZN8sat2goal3impD2Ev.exit, label %_ZNK6vectorIP4exprLb0EjE4sizeEv.exit.i.i.i

_ZNK6vectorIP4exprLb0EjE4sizeEv.exit.i.i.i:       ; preds = %invoke.cont3
  %arrayidx.i.i.i.i = getelementptr inbounds i8, ptr %3, i64 -4
  %4 = load i32, ptr %arrayidx.i.i.i.i, align 4
  %5 = zext i32 %4 to i64
  %add.ptr.i.i.i = getelementptr inbounds ptr, ptr %3, i64 %5
  %cmp3.i.not.i.i.i = icmp eq i32 %4, 0
  br i1 %cmp3.i.not.i.i.i, label %if.then.i.i.i.i.i.i, label %for.body.i.i.i.i

for.body.i.i.i.i:                                 ; preds = %_ZNK6vectorIP4exprLb0EjE4sizeEv.exit.i.i.i, %_ZN15ref_vector_coreI4expr19ref_manager_wrapperIS0_11ast_managerEE7dec_refEPS0_.exit.i.i.i.i
  %it.04.i.i.i.i = phi ptr [ %incdec.ptr.i.i.i.i, %_ZN15ref_vector_coreI4expr19ref_manager_wrapperIS0_11ast_managerEE7dec_refEPS0_.exit.i.i.i.i ], [ %3, %_ZNK6vectorIP4exprLb0EjE4sizeEv.exit.i.i.i ]
  %6 = load ptr, ptr %it.04.i.i.i.i, align 8
  %7 = load ptr, ptr %m_lit2expr.i, align 8
  %tobool.not.i.i.i.i.i.i.i = icmp eq ptr %6, null
  br i1 %tobool.not.i.i.i.i.i.i.i, label %_ZN15ref_vector_coreI4expr19ref_manager_wrapperIS0_11ast_managerEE7dec_refEPS0_.exit.i.i.i.i, label %if.then.i.i.i.i.i.i.i

if.then.i.i.i.i.i.i.i:                            ; preds = %for.body.i.i.i.i
  %m_ref_count.i.i.i.i.i.i.i.i = getelementptr inbounds i8, ptr %6, i64 8
  %8 = load i32, ptr %m_ref_count.i.i.i.i.i.i.i.i, align 4
  %dec.i.i.i.i.i.i.i.i = add i32 %8, -1
  store i32 %dec.i.i.i.i.i.i.i.i, ptr %m_ref_count.i.i.i.i.i.i.i.i, align 4
  %cmp.i.i.i.i.i.i.i = icmp eq i32 %dec.i.i.i.i.i.i.i.i, 0
  br i1 %cmp.i.i.i.i.i.i.i, label %if.then2.i.i.i.i.i.i.i, label %_ZN15ref_vector_coreI4expr19ref_manager_wrapperIS0_11ast_managerEE7dec_refEPS0_.exit.i.i.i.i

if.then2.i.i.i.i.i.i.i:                           ; preds = %if.then.i.i.i.i.i.i.i
  invoke void @_ZN11ast_manager11delete_nodeEP3ast(ptr noundef nonnull align 8 dereferenceable(976) %7, ptr noundef nonnull %6)
          to label %_ZN15ref_vector_coreI4expr19ref_manager_wrapperIS0_11ast_managerEE7dec_refEPS0_.exit.i.i.i.i unwind label %terminate.lpad.i.i.i

_ZN15ref_vector_coreI4expr19ref_manager_wrapperIS0_11ast_managerEE7dec_refEPS0_.exit.i.i.i.i: ; preds = %if.then2.i.i.i.i.i.i.i, %if.then.i.i.i.i.i.i.i, %for.body.i.i.i.i
  %incdec.ptr.i.i.i.i = getelementptr inbounds i8, ptr %it.04.i.i.i.i, i64 8
  %cmp.i1.i.i.i = icmp ult ptr %incdec.ptr.i.i.i.i, %add.ptr.i.i.i
  br i1 %cmp.i1.i.i.i, label %for.body.i.i.i.i, label %invoke.cont.i.i.i, !llvm.loop !4

invoke.cont.i.i.i:                                ; preds = %_ZN15ref_vector_coreI4expr19ref_manager_wrapperIS0_11ast_managerEE7dec_refEPS0_.exit.i.i.i.i
  %.pre.i.i.i = load ptr, ptr %m_nodes.i.i.i, align 8
  %tobool.not.i.i.i.i.i.i = icmp eq ptr %.pre.i.i.i, null
  br i1 %tobool.not.i.i.i.i.i.i, label %_ZN8sat2goal3impD2Ev.exit, label %if.then.i.i.i.i.i.i

if.then.i.i.i.i.i.i:                              ; preds = %invoke.cont.i.i.i, %_ZNK6vectorIP4exprLb0EjE4sizeEv.exit.i.i.i
  %9 = phi ptr [ %.pre.i.i.i, %invoke.cont.i.i.i ], [ %3, %_ZNK6vectorIP4exprLb0EjE4sizeEv.exit.i.i.i ]
  %add.ptr.i.i.i.i.i.i.i = getelementptr inbounds i8, ptr %9, i64 -8
  invoke void @_ZN6memory10deallocateEPv(ptr noundef nonnull %add.ptr.i.i.i.i.i.i.i)
          to label %_ZN8sat2goal3impD2Ev.exit unwind label %terminate.lpad.i.i.i.i.i

terminate.lpad.i.i.i.i.i:                         ; preds = %if.then.i.i.i.i.i.i
  %10 = landingpad { ptr, i32 }
          catch ptr null
  %11 = extractvalue { ptr, i32 } %10, 0
  call void @__clang_call_terminate(ptr %11) #19
  unreachable

terminate.lpad.i.i.i:                             ; preds = %if.then2.i.i.i.i.i.i.i
  %12 = landingpad { ptr, i32 }
          catch ptr null
  %13 = extractvalue { ptr, i32 } %12, 0
  call void @__clang_call_terminate(ptr %13) #19
  unreachable

_ZN8sat2goal3impD2Ev.exit:                        ; preds = %invoke.cont3, %invoke.cont.i.i.i, %if.then.i.i.i.i.i.i
  ret void

lpad2:                                            ; preds = %_ZN8sat2goal3impC2ER11ast_managerRK10params_ref.exit
  %14 = landingpad { ptr, i32 }
          cleanup
  store ptr null, ptr %this, align 8
  call void @_ZN8sat2goal3impD2Ev(ptr noundef nonnull align 8 dereferenceable(33) %proc) #17
  br label %common.resume
}